target datalayout = "e-m:e-p270:32:32-p271:32:32-p272:64:64-i64:64-i128:128-f80:128-n8:16:32:64-S128"
target triple = "x86_64-pc-linux-gnu"

%class.dtPathQueue = type { [8 x %"struct.dtPathQueue::PathQuery"], i32, i32, i32, ptr }
%"struct.dtPathQueue::PathQuery" = type { i32, [3 x float], [3 x float], i32, i32, ptr, i32, i32, i32, ptr }

; Function Attrs: mustprogress nounwind uwtable
define noundef i32 @_ZNK11dtPathQueue16getRequestStatusEj(ptr noundef nonnull align 8 dereferenceable(600) %0, i32 noundef %1) #0 align 2 {
  %3 = alloca i32, align 4
  %4 = alloca ptr, align 8
  %5 = alloca i32, align 4
  %6 = alloca i32, align 4
  store ptr %0, ptr %4, align 8
  store i32 %1, ptr %5, align 4
  %7 = load ptr, ptr %4, align 8
  store i32 0, ptr %6, align 4
  br label %8

8:                                                ; preds = %28, %2
  %9 = load i32, ptr %6, align 4
  %10 = icmp slt i32 %9, 8
  br i1 %10, label %11, label %31

11:                                               ; preds = %8
  %12 = getelementptr inbounds %class.dtPathQueue, ptr %7, i32 0, i32 0
  %13 = load i32, ptr %6, align 4
  %14 = sext i32 %13 to i64
  %15 = getelementptr inbounds [8 x %"struct.dtPathQueue::PathQuery"], ptr %12, i64 0, i64 %14
  %16 = getelementptr inbounds %"struct.dtPathQueue::PathQuery", ptr %15, i32 0, i32 0
  %17 = load i32, ptr %16, align 8
  %18 = load i32, ptr %5, align 4
  %19 = icmp eq i32 %17, %18
  br i1 %19, label %20, label %27

20:                                               ; preds = %11
  %21 = getelementptr inbounds %class.dtPathQueue, ptr %7, i32 0, i32 0
  %22 = load i32, ptr %6, align 4
  %23 = sext i32 %22 to i64
  %24 = getelementptr inbounds [8 x %"struct.dtPathQueue::PathQuery"], ptr %21, i64 0, i64 %23
  %25 = getelementptr inbounds %"struct.dtPathQueue::PathQuery", ptr %24, i32 0, i32 7
  %26 = load i32, ptr %25, align 4
  store i32 %26, ptr %3, align 4
  br label %32

27:                                               ; preds = %11
  br label %28

28:                                               ; preds = %27
  %29 = load i32, ptr %6, align 4
  %30 = add nsw i32 %29, 1
  store i32 %30, ptr %6, align 4
  br label %8, !llvm.loop !10

31:                                               ; preds = %8
  store i32 -2147483648, ptr %3, align 4
  br label %32

32:                                               ; preds = %31, %20
  %33 = load i32, ptr %3, align 4
  ret i32 %33
}