; Function Attrs: mustprogress nofree norecurse nosync nounwind willreturn memory(argmem: read) uwtable
define noundef i32 @_ZNK11dtPathQueue16getRequestStatusEj(ptr noundef nonnull readonly align 8 captures(none) dereferenceable(600) %0, i32 noundef %1) local_unnamed_addr #7 align 2 {
  br label %4

3:                                                ; preds = %4
  %indvars.iv.next = add nuw nsw i64 %indvars.iv, 1
  %exitcond.not = icmp eq i64 %indvars.iv.next, 8
  br i1 %exitcond.not, label %.loopexit, label %4, !llvm.loop !10

4:                                                ; preds = %2, %3
  %indvars.iv = phi i64 [ 0, %2 ], [ %indvars.iv.next, %3 ]
  %5 = getelementptr inbounds nuw [8 x %"struct.dtPathQueue::PathQuery"], ptr %0, i64 0, i64 %indvars.iv
  %6 = load i32, ptr %5, align 8
  %7 = icmp eq i32 %6, %1
  br i1 %7, label %8, label %3

8:                                                ; preds = %4
  %9 = getelementptr inbounds nuw i8, ptr %5, i64 52
  %10 = load i32, ptr %9, align 4
  br label %.loopexit

.loopexit:                                        ; preds = %3, %8
  %.06 = phi i32 [ %10, %8 ], [ -2147483648, %3 ]
  ret i32 %.06
}